target datalayout = "e-m:e-p270:32:32-p271:32:32-p272:64:64-i64:64-i128:128-f80:128-n8:16:32:64-S128"
target triple = "x86_64-pc-linux-gnu"

%struct.merge_in_file_s = type { ptr, ptr, %struct.wtap_rec, i32, i32, i64, ptr, i32, i32 }
%struct.wtap_rec = type { i32, i32, i32, %struct.nstime_t, i32, %struct.nstime_t, i8, %union.anon, ptr, i8, %struct.Buffer, %struct.Buffer }
%struct.nstime_t = type { i64, i32 }
%union.anon = type { %struct.wtap_packet_header }
%struct.wtap_packet_header = type { i32, i32, i32, i32, %union.wtap_pseudo_header }
%union.wtap_pseudo_header = type { %struct.erf_mc_phdr }
%struct.erf_mc_phdr = type { %struct.erf_phdr, [16 x %struct.erf_ehdr], %union.anon.1 }
%struct.erf_phdr = type { i64, i8, i8, i16, i16, i16 }
%struct.erf_ehdr = type { i64 }
%union.anon.1 = type { i32 }
%struct.Buffer = type { ptr, i64, i64, i64 }

@stderr = external global ptr, align 8
@.str.42 = private unnamed_addr constant [26 x i8] c"mergecap: %s is type %s.\0A\00", align 1
@.str.43 = private unnamed_addr constant [55 x i8] c"mergecap: multiple frame encapsulation types detected\0A\00", align 1
@.str.44 = private unnamed_addr constant [47 x i8] c"          defaulting to WTAP_ENCAP_PER_PACKET\0A\00", align 1
@.str.45 = private unnamed_addr constant [31 x i8] c"          %s had type %s (%s)\0A\00", align 1
@.str.46 = private unnamed_addr constant [39 x i8] c"mergecap: selected frame_type %s (%s)\0A\00", align 1
@.str.47 = private unnamed_addr constant [34 x i8] c"mergecap: ready to merge records\0A\00", align 1
@.str.48 = private unnamed_addr constant [12 x i8] c"Record: %d\0A\00", align 1
@.str.49 = private unnamed_addr constant [28 x i8] c"mergecap: merging complete\0A\00", align 1

; Function Attrs: null_pointer_is_valid sspstrong uwtable
define internal zeroext i1 @merge_callback(i32 noundef %0, i32 noundef %1, ptr noundef %2, i32 noundef %3, ptr noundef %4) #0 {
  %6 = alloca i32, align 4
  %7 = alloca i32, align 4
  %8 = alloca ptr, align 8
  %9 = alloca i32, align 4
  %10 = alloca ptr, align 8
  %11 = alloca i32, align 4
  %12 = alloca i32, align 4
  %13 = alloca i32, align 4
  store i32 %0, ptr %6, align 4
  store i32 %1, ptr %7, align 4
  store ptr %2, ptr %8, align 8
  store i32 %3, ptr %9, align 4
  store ptr %4, ptr %10, align 8
  call void @llvm.lifetime.start.p0(i64 4, ptr %11) #4
  %14 = load i32, ptr %6, align 4
  switch i32 %14, label %114 [
    i32 0, label %15
    i32 1, label %41
    i32 2, label %104
    i32 3, label %107
    i32 4, label %111
  ]

15:                                               ; preds = %5
  store i32 0, ptr %11, align 4
  br label %16

16:                                               ; preds = %37, %15
  %17 = load i32, ptr %11, align 4
  %18 = load i32, ptr %9, align 4
  %19 = icmp ult i32 %17, %18
  br i1 %19, label %20, label %40

20:                                               ; preds = %16
  %21 = load ptr, ptr @stderr, align 8
  %22 = load ptr, ptr %8, align 8
  %23 = load i32, ptr %11, align 4
  %24 = zext i32 %23 to i64
  %25 = getelementptr %struct.merge_in_file_s, ptr %22, i64 %24
  %26 = getelementptr inbounds nuw %struct.merge_in_file_s, ptr %25, i32 0, i32 0
  %27 = load ptr, ptr %26, align 8
  %28 = load ptr, ptr %8, align 8
  %29 = load i32, ptr %11, align 4
  %30 = zext i32 %29 to i64
  %31 = getelementptr %struct.merge_in_file_s, ptr %28, i64 %30
  %32 = getelementptr inbounds nuw %struct.merge_in_file_s, ptr %31, i32 0, i32 1
  %33 = load ptr, ptr %32, align 8
  %34 = call i32 @wtap_file_type_subtype(ptr noundef %33)
  %35 = call ptr @wtap_file_type_subtype_description(i32 noundef %34)
  %36 = call i32 (ptr, i32, ptr, ...) @__fprintf_chk(ptr noundef %21, i32 noundef 2, ptr noundef @.str.42, ptr noundef %27, ptr noundef %35)
  br label %37

37:                                               ; preds = %20
  %38 = load i32, ptr %11, align 4
  %39 = add i32 %38, 1
  store i32 %39, ptr %11, align 4
  br label %16, !llvm.loop !14

40:                                               ; preds = %16
  br label %114

41:                                               ; preds = %5
  %42 = load i32, ptr %7, align 4
  %43 = icmp eq i32 %42, -1
  br i1 %43, label %44, label %97

44:                                               ; preds = %41
  call void @llvm.lifetime.start.p0(i64 4, ptr %12) #4
  call void @llvm.lifetime.start.p0(i64 4, ptr %13) #4
  %45 = load ptr, ptr %8, align 8
  %46 = getelementptr %struct.merge_in_file_s, ptr %45, i64 0
  %47 = getelementptr inbounds nuw %struct.merge_in_file_s, ptr %46, i32 0, i32 1
  %48 = load ptr, ptr %47, align 8
  %49 = call i32 @wtap_file_encap(ptr noundef %48)
  store i32 %49, ptr %12, align 4
  store i32 1, ptr %11, align 4
  br label %50

50:                                               ; preds = %93, %44
  %51 = load i32, ptr %11, align 4
  %52 = load i32, ptr %9, align 4
  %53 = icmp ult i32 %51, %52
  br i1 %53, label %54, label %96

54:                                               ; preds = %50
  %55 = load ptr, ptr %8, align 8
  %56 = load i32, ptr %11, align 4
  %57 = zext i32 %56 to i64
  %58 = getelementptr %struct.merge_in_file_s, ptr %55, i64 %57
  %59 = getelementptr inbounds nuw %struct.merge_in_file_s, ptr %58, i32 0, i32 1
  %60 = load ptr, ptr %59, align 8
  %61 = call i32 @wtap_file_encap(ptr noundef %60)
  store i32 %61, ptr %13, align 4
  %62 = load i32, ptr %12, align 4
  %63 = load i32, ptr %13, align 4
  %64 = icmp ne i32 %62, %63
  br i1 %64, label %65, label %92

65:                                               ; preds = %54
  %66 = load ptr, ptr @stderr, align 8
  %67 = call i32 (ptr, i32, ptr, ...) @__fprintf_chk(ptr noundef %66, i32 noundef 2, ptr noundef @.str.43)
  %68 = load ptr, ptr @stderr, align 8
  %69 = call i32 (ptr, i32, ptr, ...) @__fprintf_chk(ptr noundef %68, i32 noundef 2, ptr noundef @.str.44)
  %70 = load ptr, ptr @stderr, align 8
  %71 = load ptr, ptr %8, align 8
  %72 = getelementptr %struct.merge_in_file_s, ptr %71, i64 0
  %73 = getelementptr inbounds nuw %struct.merge_in_file_s, ptr %72, i32 0, i32 0
  %74 = load ptr, ptr %73, align 8
  %75 = load i32, ptr %12, align 4
  %76 = call ptr @wtap_encap_description(i32 noundef %75)
  %77 = load i32, ptr %12, align 4
  %78 = call ptr @wtap_encap_name(i32 noundef %77)
  %79 = call i32 (ptr, i32, ptr, ...) @__fprintf_chk(ptr noundef %70, i32 noundef 2, ptr noundef @.str.45, ptr noundef %74, ptr noundef %76, ptr noundef %78)
  %80 = load ptr, ptr @stderr, align 8
  %81 = load ptr, ptr %8, align 8
  %82 = load i32, ptr %11, align 4
  %83 = zext i32 %82 to i64
  %84 = getelementptr %struct.merge_in_file_s, ptr %81, i64 %83
  %85 = getelementptr inbounds nuw %struct.merge_in_file_s, ptr %84, i32 0, i32 0
  %86 = load ptr, ptr %85, align 8
  %87 = load i32, ptr %13, align 4
  %88 = call ptr @wtap_encap_description(i32 noundef %87)
  %89 = load i32, ptr %13, align 4
  %90 = call ptr @wtap_encap_name(i32 noundef %89)
  %91 = call i32 (ptr, i32, ptr, ...) @__fprintf_chk(ptr noundef %80, i32 noundef 2, ptr noundef @.str.45, ptr noundef %86, ptr noundef %88, ptr noundef %90)
  br label %96

92:                                               ; preds = %54
  br label %93

93:                                               ; preds = %92
  %94 = load i32, ptr %11, align 4
  %95 = add i32 %94, 1
  store i32 %95, ptr %11, align 4
  br label %50, !llvm.loop !15

96:                                               ; preds = %65, %50
  call void @llvm.lifetime.end.p0(i64 4, ptr %13) #4
  call void @llvm.lifetime.end.p0(i64 4, ptr %12) #4
  br label %97

97:                                               ; preds = %96, %41
  %98 = load ptr, ptr @stderr, align 8
  %99 = load i32, ptr %7, align 4
  %100 = call ptr @wtap_encap_description(i32 noundef %99)
  %101 = load i32, ptr %7, align 4
  %102 = call ptr @wtap_encap_name(i32 noundef %101)
  %103 = call i32 (ptr, i32, ptr, ...) @__fprintf_chk(ptr noundef %98, i32 noundef 2, ptr noundef @.str.46, ptr noundef %100, ptr noundef %102)
  br label %114

104:                                              ; preds = %5
  %105 = load ptr, ptr @stderr, align 8
  %106 = call i32 (ptr, i32, ptr, ...) @__fprintf_chk(ptr noundef %105, i32 noundef 2, ptr noundef @.str.47)
  br label %114

107:                                              ; preds = %5
  %108 = load ptr, ptr @stderr, align 8
  %109 = load i32, ptr %7, align 4
  %110 = call i32 (ptr, i32, ptr, ...) @__fprintf_chk(ptr noundef %108, i32 noundef 2, ptr noundef @.str.48, i32 noundef %109)
  br label %114

111:                                              ; preds = %5
  %112 = load ptr, ptr @stderr, align 8
  %113 = call i32 (ptr, i32, ptr, ...) @__fprintf_chk(ptr noundef %112, i32 noundef 2, ptr noundef @.str.49)
  br label %114

114:                                              ; preds = %5, %111, %107, %104, %97, %40
  call void @llvm.lifetime.end.p0(i64 4, ptr %11) #4
  ret i1 false
}