; Function Attrs: null_pointer_is_valid sspstrong uwtable
define internal noundef zeroext i1 @merge_callback(i32 noundef %0, i32 noundef %1, ptr noundef readonly captures(none) %2, i32 noundef %3, ptr readnone captures(none) %4) #0 {
  switch i32 %0, label %.loopexit [
    i32 0, label %.preheader
    i32 1, label %14
    i32 2, label %45
    i32 3, label %48
    i32 4, label %51
  ]

.preheader:                                       ; preds = %5
  %.not33 = icmp eq i32 %3, 0
  br i1 %.not33, label %.loopexit, label %.lr.ph32.preheader

.lr.ph32.preheader:                               ; preds = %.preheader
  %wide.trip.count41 = zext i32 %3 to i64
  br label %.lr.ph32

.lr.ph32:                                         ; preds = %.lr.ph32.preheader, %.lr.ph32
  %indvars.iv38 = phi i64 [ 0, %.lr.ph32.preheader ], [ %indvars.iv.next39, %.lr.ph32 ]
  %6 = load ptr, ptr @stderr, align 8
  %7 = getelementptr %struct.merge_in_file_s, ptr %2, i64 %indvars.iv38
  %8 = load ptr, ptr %7, align 8
  %9 = getelementptr inbounds nuw i8, ptr %7, i64 8
  %10 = load ptr, ptr %9, align 8
  %11 = tail call i32 @wtap_file_type_subtype(ptr noundef %10)
  %12 = tail call ptr @wtap_file_type_subtype_description(i32 noundef %11)
  %13 = tail call i32 (ptr, i32, ptr, ...) @__fprintf_chk(ptr noundef %6, i32 noundef 2, ptr noundef nonnull @.str.42, ptr noundef %8, ptr noundef %12)
  %indvars.iv.next39 = add nuw nsw i64 %indvars.iv38, 1
  %exitcond42.not = icmp eq i64 %indvars.iv.next39, %wide.trip.count41
  br i1 %exitcond42.not, label %.loopexit, label %.lr.ph32, !llvm.loop !12

14:                                               ; preds = %5
  %15 = icmp eq i32 %1, -1
  br i1 %15, label %16, label %.loopexit28

16:                                               ; preds = %14
  %17 = getelementptr inbounds nuw i8, ptr %2, i64 8
  %18 = load ptr, ptr %17, align 8
  %19 = tail call i32 @wtap_file_encap(ptr noundef %18)
  %20 = icmp ugt i32 %3, 1
  br i1 %20, label %.lr.ph.preheader, label %.loopexit28

.lr.ph.preheader:                                 ; preds = %16
  %wide.trip.count = zext i32 %3 to i64
  br label %.lr.ph

21:                                               ; preds = %.lr.ph
  %indvars.iv.next = add nuw nsw i64 %indvars.iv, 1
  %exitcond.not = icmp eq i64 %indvars.iv.next, %wide.trip.count
  br i1 %exitcond.not, label %.loopexit28, label %.lr.ph, !llvm.loop !13

.lr.ph:                                           ; preds = %.lr.ph.preheader, %21
  %indvars.iv = phi i64 [ 1, %.lr.ph.preheader ], [ %indvars.iv.next, %21 ]
  %22 = getelementptr %struct.merge_in_file_s, ptr %2, i64 %indvars.iv
  %23 = getelementptr inbounds nuw i8, ptr %22, i64 8
  %24 = load ptr, ptr %23, align 8
  %25 = tail call i32 @wtap_file_encap(ptr noundef %24)
  %.not = icmp eq i32 %19, %25
  br i1 %.not, label %21, label %26

26:                                               ; preds = %.lr.ph
  %27 = load ptr, ptr @stderr, align 8
  %28 = tail call i32 (ptr, i32, ptr, ...) @__fprintf_chk(ptr noundef %27, i32 noundef 2, ptr noundef nonnull @.str.43)
  %29 = load ptr, ptr @stderr, align 8
  %30 = tail call i32 (ptr, i32, ptr, ...) @__fprintf_chk(ptr noundef %29, i32 noundef 2, ptr noundef nonnull @.str.44)
  %31 = load ptr, ptr @stderr, align 8
  %32 = load ptr, ptr %2, align 8
  %33 = tail call ptr @wtap_encap_description(i32 noundef %19)
  %34 = tail call ptr @wtap_encap_name(i32 noundef %19)
  %35 = tail call i32 (ptr, i32, ptr, ...) @__fprintf_chk(ptr noundef %31, i32 noundef 2, ptr noundef nonnull @.str.45, ptr noundef %32, ptr noundef %33, ptr noundef %34)
  %36 = load ptr, ptr @stderr, align 8
  %37 = load ptr, ptr %22, align 8
  %38 = tail call ptr @wtap_encap_description(i32 noundef %25)
  %39 = tail call ptr @wtap_encap_name(i32 noundef %25)
  %40 = tail call i32 (ptr, i32, ptr, ...) @__fprintf_chk(ptr noundef %36, i32 noundef 2, ptr noundef nonnull @.str.45, ptr noundef %37, ptr noundef %38, ptr noundef %39)
  br label %.loopexit28

.loopexit28:                                      ; preds = %21, %16, %26, %14
  %41 = load ptr, ptr @stderr, align 8
  %42 = tail call ptr @wtap_encap_description(i32 noundef %1)
  %43 = tail call ptr @wtap_encap_name(i32 noundef %1)
  %44 = tail call i32 (ptr, i32, ptr, ...) @__fprintf_chk(ptr noundef %41, i32 noundef 2, ptr noundef nonnull @.str.46, ptr noundef %42, ptr noundef %43)
  br label %.loopexit

45:                                               ; preds = %5
  %46 = load ptr, ptr @stderr, align 8
  %47 = tail call i32 (ptr, i32, ptr, ...) @__fprintf_chk(ptr noundef %46, i32 noundef 2, ptr noundef nonnull @.str.47)
  br label %.loopexit

48:                                               ; preds = %5
  %49 = load ptr, ptr @stderr, align 8
  %50 = tail call i32 (ptr, i32, ptr, ...) @__fprintf_chk(ptr noundef %49, i32 noundef 2, ptr noundef nonnull @.str.48, i32 noundef %1)
  br label %.loopexit

51:                                               ; preds = %5
  %52 = load ptr, ptr @stderr, align 8
  %53 = tail call i32 (ptr, i32, ptr, ...) @__fprintf_chk(ptr noundef %52, i32 noundef 2, ptr noundef nonnull @.str.49)
  br label %.loopexit

.loopexit:                                        ; preds = %.lr.ph32, %.preheader, %51, %48, %45, %.loopexit28, %5
  ret i1 false
}